target datalayout = "e-m:e-p270:32:32-p271:32:32-p272:64:64-i64:64-i128:128-f80:128-n8:16:32:64-S128"
target triple = "x86_64-pc-linux-gnu"

%struct.H5O_layout_t = type { i32, i32, ptr, %union.anon, %struct.H5O_storage_t }
%union.anon = type { %struct.H5O_layout_chunk_t }
%struct.H5O_layout_chunk_t = type { i32, i8, i32, [33 x i32], i32, i32, i64, i64, [33 x i64], [33 x i64], [33 x i64], [33 x i64], %union.anon.0 }
%union.anon.0 = type { %struct.H5O_layout_chunk_earray_t }
%struct.H5O_layout_chunk_earray_t = type { %struct.anon.1, i32, [33 x i32], [33 x i64], [33 x i64] }
%struct.anon.1 = type { i8, i8, i8, i8, i8 }
%struct.H5O_storage_t = type { i32, %union.anon.3 }
%union.anon.3 = type { %struct.H5O_storage_virtual_t }
%struct.H5O_storage_virtual_t = type { %struct.H5HG_t, i64, ptr, i64, [32 x i64], i32, i64, i64, i64, i8 }
%struct.H5HG_t = type { i64, i64 }

@H5D_init_g = external global i8, align 1
@H5_libterm_g = external global i8, align 1
@.str.1 = private unnamed_addr constant [104 x i8] c"generated/home/dtcxzyw/WorkSpace/Projects/compilers/llvm-opt-benchmark/bench/hdf5/hdf5/src/H5Dvirtual.c\00", align 1
@H5E_DATASET_g = external global i64, align 8
@__func__.H5D__virtual_copy = private unnamed_addr constant [18 x i8] c"H5D__virtual_copy\00", align 1
@H5E_CANTSET_g = external global i64, align 8
@.str.40 = private unnamed_addr constant [25 x i8] c"unable to store VDS info\00", align 1

; Function Attrs: nounwind uwtable
define i32 @H5D__virtual_copy(ptr noundef %0, ptr noundef %1) #0 {
  %3 = alloca ptr, align 8
  %4 = alloca ptr, align 8
  %5 = alloca i32, align 4
  %6 = alloca i8, align 1
  store ptr %0, ptr %3, align 8, !tbaa !3
  store ptr %1, ptr %4, align 8, !tbaa !128
  call void @llvm.lifetime.start.p0(i64 4, ptr %5) #10
  store i32 0, ptr %5, align 4, !tbaa !12
  call void @llvm.lifetime.start.p0(i64 1, ptr %6) #10
  store i8 0, ptr %6, align 1, !tbaa !14
  %7 = load i8, ptr @H5D_init_g, align 1, !tbaa !14, !range !16, !noundef !17
  %8 = trunc i8 %7 to i1
  br i1 %8, label %13, label %9

9:                                                ; preds = %2
  %10 = load i8, ptr @H5_libterm_g, align 1, !tbaa !14, !range !16, !noundef !17
  %11 = trunc i8 %10 to i1
  %12 = xor i1 %11, true
  br label %13

13:                                               ; preds = %9, %2
  %14 = phi i1 [ true, %2 ], [ %12, %9 ]
  %15 = xor i1 %14, true
  %16 = xor i1 %15, true
  %17 = zext i1 %16 to i32
  %18 = sext i32 %17 to i64
  %19 = call i64 @llvm.expect.i64(i64 %18, i64 1)
  %20 = icmp ne i64 %19, 0
  br i1 %20, label %21, label %57

21:                                               ; preds = %13
  %22 = load ptr, ptr %4, align 8, !tbaa !128
  %23 = getelementptr inbounds nuw %struct.H5O_layout_t, ptr %22, i32 0, i32 4
  %24 = getelementptr inbounds nuw %struct.H5O_storage_t, ptr %23, i32 0, i32 1
  %25 = getelementptr inbounds nuw %struct.H5O_storage_virtual_t, ptr %24, i32 0, i32 0
  %26 = getelementptr inbounds nuw %struct.H5HG_t, ptr %25, i32 0, i32 0
  store i64 -1, ptr %26, align 8, !tbaa !120
  %27 = load ptr, ptr %4, align 8, !tbaa !128
  %28 = getelementptr inbounds nuw %struct.H5O_layout_t, ptr %27, i32 0, i32 4
  %29 = getelementptr inbounds nuw %struct.H5O_storage_t, ptr %28, i32 0, i32 1
  %30 = getelementptr inbounds nuw %struct.H5O_storage_virtual_t, ptr %29, i32 0, i32 0
  %31 = getelementptr inbounds nuw %struct.H5HG_t, ptr %30, i32 0, i32 1
  store i64 0, ptr %31, align 8, !tbaa !120
  %32 = load ptr, ptr %3, align 8, !tbaa !3
  %33 = load ptr, ptr %4, align 8, !tbaa !128
  %34 = call i32 @H5D__virtual_store_layout(ptr noundef %32, ptr noundef %33)
  %35 = icmp slt i32 %34, 0
  br i1 %35, label %36, label %55

36:                                               ; preds = %21
  br label %37

37:                                               ; preds = %36
  br label %38

38:                                               ; preds = %37
  br label %39

39:                                               ; preds = %38
  %40 = load i64, ptr @H5E_DATASET_g, align 8, !tbaa !10
  %41 = load i64, ptr @H5E_CANTSET_g, align 8, !tbaa !10
  %42 = call i32 (ptr, ptr, i32, i64, i64, ptr, ...) @H5E_printf_stack(ptr noundef @.str.1, ptr noundef @__func__.H5D__virtual_copy, i32 noundef 792, i64 noundef %40, i64 noundef %41, ptr noundef @.str.40)
  br label %43

43:                                               ; preds = %39
  br label %44

44:                                               ; preds = %43
  store i8 1, ptr %6, align 1, !tbaa !14
  %45 = load i8, ptr %6, align 1, !tbaa !14, !range !16, !noundef !17
  %46 = trunc i8 %45 to i1
  %47 = zext i1 %46 to i8
  store i8 %47, ptr %6, align 1, !tbaa !14
  br label %48

48:                                               ; preds = %44
  br label %49

49:                                               ; preds = %48
  br label %50

50:                                               ; preds = %49
  store i32 -1, ptr %5, align 4, !tbaa !12
  br label %56

51:                                               ; No predecessors!
  br label %52

52:                                               ; preds = %51
  br label %53

53:                                               ; preds = %52
  br label %54

54:                                               ; preds = %53
  br label %55

55:                                               ; preds = %54, %21
  br label %56

56:                                               ; preds = %55, %50
  br label %57

57:                                               ; preds = %56, %13
  %58 = load i32, ptr %5, align 4, !tbaa !12
  call void @llvm.lifetime.end.p0(i64 1, ptr %6) #10
  call void @llvm.lifetime.end.p0(i64 4, ptr %5) #10
  ret i32 %58
}